target datalayout = "e-m:e-p270:32:32-p271:32:32-p272:64:64-i64:64-i128:128-f80:128-n8:16:32:64-S128"
target triple = "x86_64-pc-linux-gnu"

%struct._zend_array = type { %struct._zend_refcounted_h, %union.anon.0, i32, %union.anon.1, i32, i32, i32, i32, i64, ptr }
%struct._zend_refcounted_h = type { i32, %union.anon }
%union.anon = type { i32 }
%union.anon.0 = type { i32 }
%union.anon.1 = type { ptr }
%struct._zval_struct = type { %union._zend_value, %union.anon.3, %union.anon.6 }
%union._zend_value = type { i64 }
%union.anon.3 = type { i32 }
%union.anon.6 = type { i32 }
%struct._zend_string = type { %struct._zend_refcounted_h, i64, i64, [1 x i8] }
%struct._phar_archive_data = type { ptr, i32, ptr, i32, ptr, i32, [12 x i8], i64, %struct._zend_array, %struct._zend_array, %struct._zend_array, i32, i32, i32, ptr, ptr, i32, i32, i32, ptr, %struct._phar_metadata_tracker, i32, i16 }
%struct._phar_metadata_tracker = type { %struct._zval_struct, ptr }

@.str.2 = private unnamed_addr constant [8 x i8] c"phar://\00", align 1
@.str.4 = private unnamed_addr constant [13 x i8] c"phar://%s/%s\00", align 1

; Function Attrs: alwaysinline nounwind uwtable
define internal zeroext i1 @zend_hash_str_exists(ptr noundef %0, ptr noundef %1, i64 noundef %2) #2 {
  %4 = alloca ptr, align 8
  %5 = alloca ptr, align 8
  %6 = alloca i64, align 8
  store ptr %0, ptr %4, align 8, !tbaa !74
  store ptr %1, ptr %5, align 8, !tbaa !51
  store i64 %2, ptr %6, align 8, !tbaa !57
  %7 = load ptr, ptr %4, align 8, !tbaa !74
  %8 = load ptr, ptr %5, align 8, !tbaa !51
  %9 = load i64, ptr %6, align 8, !tbaa !57
  %10 = call ptr @zend_hash_str_find(ptr noundef %7, ptr noundef %8, i64 noundef %9)
  %11 = icmp ne ptr %10, null
  ret i1 %11
}

; Function Attrs: alwaysinline nounwind uwtable
define internal zeroext i1 @zend_string_starts_with_cstr_ci(ptr noundef %0, ptr noundef %1, i64 noundef %2) #2 {
  %4 = alloca ptr, align 8
  %5 = alloca ptr, align 8
  %6 = alloca i64, align 8
  store ptr %0, ptr %4, align 8, !tbaa !52
  store ptr %1, ptr %5, align 8, !tbaa !51
  store i64 %2, ptr %6, align 8, !tbaa !57
  %7 = load ptr, ptr %4, align 8, !tbaa !52
  %8 = getelementptr inbounds nuw %struct._zend_string, ptr %7, i32 0, i32 2
  %9 = load i64, ptr %8, align 8, !tbaa !53
  %10 = load i64, ptr %6, align 8, !tbaa !57
  %11 = icmp uge i64 %9, %10
  br i1 %11, label %12, label %21

12:                                               ; preds = %3
  %13 = load ptr, ptr %4, align 8, !tbaa !52
  %14 = getelementptr inbounds nuw %struct._zend_string, ptr %13, i32 0, i32 3
  %15 = getelementptr inbounds [1 x i8], ptr %14, i64 0, i64 0
  %16 = load ptr, ptr %5, align 8, !tbaa !51
  %17 = load i64, ptr %6, align 8, !tbaa !57
  %18 = call i32 @strncasecmp(ptr noundef %15, ptr noundef %16, i64 noundef %17) #12
  %19 = icmp ne i32 %18, 0
  %20 = xor i1 %19, true
  br label %21

21:                                               ; preds = %12, %3
  %22 = phi i1 [ false, %3 ], [ %20, %12 ]
  ret i1 %22
}

; Function Attrs: nounwind uwtable
define internal ptr @phar_get_name_for_relative_paths(ptr noundef %0, i1 noundef zeroext %1) #0 {
  %3 = alloca ptr, align 8
  %4 = alloca ptr, align 8
  %5 = alloca i8, align 1
  %6 = alloca ptr, align 8
  %7 = alloca ptr, align 8
  %8 = alloca i64, align 8
  %9 = alloca i64, align 8
  %10 = alloca ptr, align 8
  %11 = alloca i32, align 4
  %12 = alloca ptr, align 8
  %13 = alloca ptr, align 8
  store ptr %0, ptr %4, align 8, !tbaa !52
  %14 = zext i1 %1 to i8
  store i8 %14, ptr %5, align 1, !tbaa !76
  call void @llvm.lifetime.start.p0(i64 8, ptr %6) #11
  call void @llvm.lifetime.start.p0(i64 8, ptr %7) #11
  call void @llvm.lifetime.start.p0(i64 8, ptr %8) #11
  call void @llvm.lifetime.start.p0(i64 8, ptr %9) #11
  call void @llvm.lifetime.start.p0(i64 8, ptr %10) #11
  %15 = call ptr @zend_get_executed_filename_ex()
  store ptr %15, ptr %10, align 8, !tbaa !52
  %16 = load ptr, ptr %10, align 8, !tbaa !52
  %17 = icmp ne ptr %16, null
  br i1 %17, label %18, label %21

18:                                               ; preds = %2
  %19 = load ptr, ptr %10, align 8, !tbaa !52
  %20 = call zeroext i1 @zend_string_starts_with_cstr_ci(ptr noundef %19, ptr noundef @.str.2, i64 noundef 7)
  br i1 %20, label %22, label %21

21:                                               ; preds = %18, %2
  store ptr null, ptr %3, align 8
  store i32 1, ptr %11, align 4
  br label %116

22:                                               ; preds = %18
  %23 = load ptr, ptr %10, align 8, !tbaa !52
  %24 = getelementptr inbounds nuw %struct._zend_string, ptr %23, i32 0, i32 3
  %25 = getelementptr inbounds [1 x i8], ptr %24, i64 0, i64 0
  %26 = load ptr, ptr %10, align 8, !tbaa !52
  %27 = getelementptr inbounds nuw %struct._zend_string, ptr %26, i32 0, i32 2
  %28 = load i64, ptr %27, align 8, !tbaa !53
  %29 = call i32 @phar_split_fname(ptr noundef %25, i64 noundef %28, ptr noundef %6, ptr noundef %8, ptr noundef %7, ptr noundef %9, i32 noundef 2, i32 noundef 0)
  %30 = icmp eq i32 -1, %29
  br i1 %30, label %31, label %32

31:                                               ; preds = %22
  store ptr null, ptr %3, align 8
  store i32 1, ptr %11, align 4
  br label %116

32:                                               ; preds = %22
  %33 = load ptr, ptr %7, align 8, !tbaa !51
  call void @_efree(ptr noundef %33)
  store ptr null, ptr %7, align 8, !tbaa !51
  store i64 0, ptr %9, align 8, !tbaa !57
  call void @llvm.lifetime.start.p0(i64 8, ptr %12) #11
  %34 = load ptr, ptr %6, align 8, !tbaa !51
  %35 = load i64, ptr %8, align 8, !tbaa !57
  %36 = call i32 @phar_get_archive(ptr noundef %12, ptr noundef %34, i64 noundef %35, ptr noundef null, i64 noundef 0, ptr noundef null)
  %37 = icmp eq i32 -1, %36
  br i1 %37, label %38, label %40

38:                                               ; preds = %32
  %39 = load ptr, ptr %6, align 8, !tbaa !51
  call void @_efree(ptr noundef %39)
  store ptr null, ptr %3, align 8
  store i32 1, ptr %11, align 4
  br label %115

40:                                               ; preds = %32
  call void @llvm.lifetime.start.p0(i64 8, ptr %13) #11
  store ptr null, ptr %13, align 8, !tbaa !52
  %41 = load i8, ptr %5, align 1, !tbaa !76, !range !21, !noundef !22
  %42 = trunc i8 %41 to i1
  br i1 %42, label %43, label %50

43:                                               ; preds = %40
  %44 = load ptr, ptr %4, align 8, !tbaa !52
  %45 = call ptr @phar_find_in_include_path(ptr noundef %44, ptr noundef null)
  store ptr %45, ptr %13, align 8, !tbaa !52
  %46 = icmp ne ptr %45, null
  br i1 %46, label %49, label %47

47:                                               ; preds = %43
  %48 = load ptr, ptr %6, align 8, !tbaa !51
  call void @_efree(ptr noundef %48)
  store ptr null, ptr %3, align 8
  store i32 1, ptr %11, align 4
  br label %114

49:                                               ; preds = %43
  br label %111

50:                                               ; preds = %40
  %51 = load ptr, ptr %4, align 8, !tbaa !52
  %52 = getelementptr inbounds nuw %struct._zend_string, ptr %51, i32 0, i32 2
  %53 = load i64, ptr %52, align 8, !tbaa !53
  store i64 %53, ptr %9, align 8, !tbaa !57
  %54 = load ptr, ptr %4, align 8, !tbaa !52
  %55 = getelementptr inbounds nuw %struct._zend_string, ptr %54, i32 0, i32 3
  %56 = getelementptr inbounds [1 x i8], ptr %55, i64 0, i64 0
  %57 = load ptr, ptr %4, align 8, !tbaa !52
  %58 = getelementptr inbounds nuw %struct._zend_string, ptr %57, i32 0, i32 2
  %59 = load i64, ptr %58, align 8, !tbaa !53
  %60 = call noalias ptr @_estrndup(ptr noundef %56, i64 noundef %59)
  %61 = call ptr @phar_fix_filepath(ptr noundef %60, ptr noundef %9, i32 noundef 1)
  store ptr %61, ptr %7, align 8, !tbaa !51
  %62 = load ptr, ptr %7, align 8, !tbaa !51
  %63 = getelementptr inbounds i8, ptr %62, i64 0
  %64 = load i8, ptr %63, align 1, !tbaa !23
  %65 = sext i8 %64 to i32
  %66 = icmp eq i32 %65, 47
  br i1 %66, label %67, label %80

67:                                               ; preds = %50
  %68 = load ptr, ptr %12, align 8, !tbaa !78
  %69 = getelementptr inbounds nuw %struct._phar_archive_data, ptr %68, i32 0, i32 8
  %70 = load ptr, ptr %7, align 8, !tbaa !51
  %71 = getelementptr inbounds i8, ptr %70, i64 1
  %72 = load i64, ptr %9, align 8, !tbaa !57
  %73 = sub i64 %72, 1
  %74 = call zeroext i1 @zend_hash_str_exists(ptr noundef %69, ptr noundef %71, i64 noundef %73)
  br i1 %74, label %79, label %75

75:                                               ; preds = %67
  br label %76

76:                                               ; preds = %86, %75
  %77 = load ptr, ptr %7, align 8, !tbaa !51
  call void @_efree(ptr noundef %77)
  %78 = load ptr, ptr %6, align 8, !tbaa !51
  call void @_efree(ptr noundef %78)
  store ptr null, ptr %3, align 8
  store i32 1, ptr %11, align 4
  br label %114

79:                                               ; preds = %67
  br label %88

80:                                               ; preds = %50
  %81 = load ptr, ptr %12, align 8, !tbaa !78
  %82 = getelementptr inbounds nuw %struct._phar_archive_data, ptr %81, i32 0, i32 8
  %83 = load ptr, ptr %7, align 8, !tbaa !51
  %84 = load i64, ptr %9, align 8, !tbaa !57
  %85 = call zeroext i1 @zend_hash_str_exists(ptr noundef %82, ptr noundef %83, i64 noundef %84)
  br i1 %85, label %87, label %86

86:                                               ; preds = %80
  br label %76

87:                                               ; preds = %80
  br label %88

88:                                               ; preds = %87, %79
  %89 = load ptr, ptr %7, align 8, !tbaa !51
  %90 = getelementptr inbounds i8, ptr %89, i64 0
  %91 = load i8, ptr %90, align 1, !tbaa !23
  %92 = sext i8 %91 to i32
  %93 = icmp eq i32 %92, 47
  br i1 %93, label %94, label %105

94:                                               ; preds = %88
  %95 = load i64, ptr %8, align 8, !tbaa !57
  %96 = add i64 7, %95
  %97 = load i64, ptr %9, align 8, !tbaa !57
  %98 = add i64 %96, %97
  %99 = icmp ult i64 %98, 4096
  call void @llvm.assume(i1 %99)
  %100 = load ptr, ptr %6, align 8, !tbaa !51
  %101 = load i64, ptr %8, align 8, !tbaa !57
  %102 = load ptr, ptr %7, align 8, !tbaa !51
  %103 = load i64, ptr %9, align 8, !tbaa !57
  %104 = call ptr @zend_string_concat3(ptr noundef @.str.2, i64 noundef 7, ptr noundef %100, i64 noundef %101, ptr noundef %102, i64 noundef %103)
  store ptr %104, ptr %13, align 8, !tbaa !52
  br label %109

105:                                              ; preds = %88
  %106 = load ptr, ptr %6, align 8, !tbaa !51
  %107 = load ptr, ptr %7, align 8, !tbaa !51
  %108 = call ptr (i64, ptr, ...) @zend_strpprintf(i64 noundef 4096, ptr noundef @.str.4, ptr noundef %106, ptr noundef %107)
  store ptr %108, ptr %13, align 8, !tbaa !52
  br label %109

109:                                              ; preds = %105, %94
  %110 = load ptr, ptr %7, align 8, !tbaa !51
  call void @_efree(ptr noundef %110)
  br label %111

111:                                              ; preds = %109, %49
  %112 = load ptr, ptr %6, align 8, !tbaa !51
  call void @_efree(ptr noundef %112)
  %113 = load ptr, ptr %13, align 8, !tbaa !52
  store ptr %113, ptr %3, align 8
  store i32 1, ptr %11, align 4
  br label %114

114:                                              ; preds = %111, %76, %47
  call void @llvm.lifetime.end.p0(i64 8, ptr %13) #11
  br label %115

115:                                              ; preds = %114, %38
  call void @llvm.lifetime.end.p0(i64 8, ptr %12) #11
  br label %116

116:                                              ; preds = %115, %31, %21
  call void @llvm.lifetime.end.p0(i64 8, ptr %10) #11
  call void @llvm.lifetime.end.p0(i64 8, ptr %9) #11
  call void @llvm.lifetime.end.p0(i64 8, ptr %8) #11
  call void @llvm.lifetime.end.p0(i64 8, ptr %7) #11
  call void @llvm.lifetime.end.p0(i64 8, ptr %6) #11
  %117 = load ptr, ptr %3, align 8
  ret ptr %117
}