; Function Attrs: nounwind uwtable
define internal fastcc ptr @phar_get_name_for_relative_paths(ptr noundef %0, i1 noundef zeroext %1) unnamed_addr #0 {
  %3 = alloca ptr, align 8
  %4 = alloca ptr, align 8
  %5 = alloca i64, align 8
  %6 = alloca i64, align 8
  %7 = alloca ptr, align 8
  call void @llvm.lifetime.start.p0(i64 8, ptr nonnull %3) #12
  call void @llvm.lifetime.start.p0(i64 8, ptr nonnull %4) #12
  call void @llvm.lifetime.start.p0(i64 8, ptr nonnull %5) #12
  call void @llvm.lifetime.start.p0(i64 8, ptr nonnull %6) #12
  %8 = tail call ptr @zend_get_executed_filename_ex() #12
  %.not = icmp eq ptr %8, null
  br i1 %.not, label %zend_string_starts_with_cstr_ci.exit.thread, label %9

9:                                                ; preds = %2
  %10 = getelementptr inbounds nuw i8, ptr %8, i64 16
  %11 = load i64, ptr %10, align 8, !tbaa !51
  %12 = icmp ugt i64 %11, 6
  br i1 %12, label %zend_string_starts_with_cstr_ci.exit, label %zend_string_starts_with_cstr_ci.exit.thread

zend_string_starts_with_cstr_ci.exit:             ; preds = %9
  %13 = getelementptr inbounds nuw i8, ptr %8, i64 24
  %14 = tail call i32 @strncasecmp(ptr noundef nonnull %13, ptr noundef nonnull @.str.2, i64 noundef 7) #13
  %.not.i = icmp eq i32 %14, 0
  br i1 %.not.i, label %15, label %zend_string_starts_with_cstr_ci.exit.thread

15:                                               ; preds = %zend_string_starts_with_cstr_ci.exit
  %16 = call i32 @phar_split_fname(ptr noundef nonnull %13, i64 noundef %11, ptr noundef nonnull %3, ptr noundef nonnull %5, ptr noundef nonnull %4, ptr noundef nonnull %6, i32 noundef 2, i32 noundef 0) #12
  %17 = icmp eq i32 %16, -1
  br i1 %17, label %zend_string_starts_with_cstr_ci.exit.thread, label %18

18:                                               ; preds = %15
  %19 = load ptr, ptr %4, align 8, !tbaa !50
  call void @_efree(ptr noundef %19) #12
  store ptr null, ptr %4, align 8, !tbaa !50
  store i64 0, ptr %6, align 8, !tbaa !53
  call void @llvm.lifetime.start.p0(i64 8, ptr nonnull %7) #12
  %20 = load ptr, ptr %3, align 8, !tbaa !50
  %21 = load i64, ptr %5, align 8, !tbaa !53
  %22 = call i32 @phar_get_archive(ptr noundef nonnull %7, ptr noundef %20, i64 noundef %21, ptr noundef null, i64 noundef 0, ptr noundef null) #12
  %23 = icmp eq i32 %22, -1
  br i1 %23, label %61, label %24

24:                                               ; preds = %18
  br i1 %1, label %25, label %27

25:                                               ; preds = %24
  %26 = call ptr @phar_find_in_include_path(ptr noundef %0, ptr noundef null) #12
  br label %61

27:                                               ; preds = %24
  %28 = getelementptr inbounds nuw i8, ptr %0, i64 16
  %29 = load i64, ptr %28, align 8, !tbaa !51
  store i64 %29, ptr %6, align 8, !tbaa !53
  %30 = getelementptr inbounds nuw i8, ptr %0, i64 24
  %31 = call noalias ptr @_estrndup(ptr noundef nonnull %30, i64 noundef %29) #12
  %32 = call ptr @phar_fix_filepath(ptr noundef %31, ptr noundef nonnull %6, i32 noundef 1) #12
  store ptr %32, ptr %4, align 8, !tbaa !50
  %33 = load i8, ptr %32, align 1, !tbaa !21
  %34 = icmp eq i8 %33, 47
  %35 = load ptr, ptr %7, align 8, !tbaa !69
  %36 = getelementptr inbounds nuw i8, ptr %35, i64 64
  br i1 %34, label %37, label %42

37:                                               ; preds = %27
  %38 = getelementptr inbounds nuw i8, ptr %32, i64 1
  %39 = load i64, ptr %6, align 8, !tbaa !53
  %40 = add i64 %39, -1
  %41 = call ptr @zend_hash_str_find(ptr noundef nonnull %36, ptr noundef nonnull %38, i64 noundef %40) #12
  %.not16 = icmp eq ptr %41, null
  br i1 %.not16, label %.sink.split, label %45

42:                                               ; preds = %27
  %43 = load i64, ptr %6, align 8, !tbaa !53
  %44 = call ptr @zend_hash_str_find(ptr noundef nonnull %36, ptr noundef nonnull %32, i64 noundef %43) #12
  %.not15 = icmp eq ptr %44, null
  br i1 %.not15, label %.sink.split, label %45

45:                                               ; preds = %42, %37
  %46 = load ptr, ptr %4, align 8, !tbaa !50
  %47 = load i8, ptr %46, align 1, !tbaa !21
  %48 = icmp eq i8 %47, 47
  br i1 %48, label %49, label %57

49:                                               ; preds = %45
  %50 = load i64, ptr %5, align 8, !tbaa !53
  %51 = add i64 %50, 7
  %52 = load i64, ptr %6, align 8, !tbaa !53
  %53 = add i64 %51, %52
  %54 = icmp ult i64 %53, 4096
  call void @llvm.assume(i1 %54)
  %55 = load ptr, ptr %3, align 8, !tbaa !50
  %56 = call ptr @zend_string_concat3(ptr noundef nonnull @.str.2, i64 noundef 7, ptr noundef %55, i64 noundef %50, ptr noundef nonnull %46, i64 noundef %52) #12
  br label %.sink.split

57:                                               ; preds = %45
  %58 = load ptr, ptr %3, align 8, !tbaa !50
  %59 = call ptr (i64, ptr, ...) @zend_strpprintf(i64 noundef 4096, ptr noundef nonnull @.str.4, ptr noundef %58, ptr noundef nonnull %46) #12
  br label %.sink.split

.sink.split:                                      ; preds = %49, %57, %37, %42
  %.111.ph = phi ptr [ null, %42 ], [ null, %37 ], [ %56, %49 ], [ %59, %57 ]
  %60 = load ptr, ptr %4, align 8, !tbaa !50
  call void @_efree(ptr noundef %60) #12
  br label %61

61:                                               ; preds = %25, %.sink.split, %18
  %.111 = phi ptr [ null, %18 ], [ %26, %25 ], [ %.111.ph, %.sink.split ]
  %62 = load ptr, ptr %3, align 8, !tbaa !50
  call void @_efree(ptr noundef %62) #12
  call void @llvm.lifetime.end.p0(i64 8, ptr nonnull %7) #12
  br label %zend_string_starts_with_cstr_ci.exit.thread

zend_string_starts_with_cstr_ci.exit.thread:      ; preds = %9, %15, %2, %zend_string_starts_with_cstr_ci.exit, %61
  %.010 = phi ptr [ %.111, %61 ], [ null, %zend_string_starts_with_cstr_ci.exit ], [ null, %2 ], [ null, %15 ], [ null, %9 ]
  call void @llvm.lifetime.end.p0(i64 8, ptr nonnull %6) #12
  call void @llvm.lifetime.end.p0(i64 8, ptr nonnull %5) #12
  call void @llvm.lifetime.end.p0(i64 8, ptr nonnull %4) #12
  call void @llvm.lifetime.end.p0(i64 8, ptr nonnull %3) #12
  ret ptr %.010
}